(dp1
I0
(lp2
S'0000812301'
p3
asI2052
(lp4
S'0000057528'
p5
aS'0000785956'
p6
asI8200
(lp7
S'0000070415'
p8
aS'0000730464'
p9
aS'0000880059'
p10
aS'0000922475'
p11
aS'0000929887'
p12
aS'0001002037'
p13
aS'0001013934'
p14
aS'0001042173'
p15
aS'0001046568'
p16
aS'0001066134'
p17
asI6153
(lp18
S'0001084961'
p19
asI2060
(lp20
S'0000047111'
p21
aS'0000059255'
p22
aS'0000098677'
p23
aS'0000785815'
p24
aS'0000831327'
p25
aS'0000868278'
p26
aS'0000880117'
p27
asI6159
(lp28
S'0000827230'
p29
asI6162
(lp30
S'0000776867'
p31
aS'0000840889'
p32
aS'0001021422'
p33
aS'0001040719'
p34
aS'0001043325'
p35
aS'0001061630'
p36
asI2070
(lp37
S'0000007084'
p38
aS'0000109177'
p39
aS'0000916540'
p40
asI6172
(lp41
S'0001022408'
p42
asI2080
(lp43
S'0000014693'
p44
aS'0000016918'
p45
aS'0000021344'
p46
aS'0000030697'
p47
aS'0000077476'
p48
aS'0000310142'
p49
asI2082
(lp50
S'0000024545'
p51
aS'0000310569'
p52
aS'0000892222'
p53
aS'0000949870'
p54
asI2086
(lp55
S'0000069891'
p56
aS'0000317540'
p57
aS'0000865752'
p58
asI2090
(lp59
S'0000034563'
p60
aS'0000042228'
p61
aS'0000063754'
p62
aS'0000909954'
p63
asI6189
(lp64
S'0001043219'
p65
aS'0001045425'
p66
asI6199
(lp67
S'0000752634'
p68
aS'0000889609'
p69
aS'0000895421'
p70
aS'0001000209'
p71
aS'0001032033'
p72
aS'0001059142'
p73
aS'0001071341'
p74
asI6200
(lp75
S'0001023844'
p76
asI2111
(lp77
S'0000059440'
p78
asI6211
(lp79
S'0000004962'
p80
aS'0000065596'
p81
aS'0000316709'
p82
aS'0000350894'
p83
aS'0000704051'
p84
aS'0000720005'
p85
aS'0000720672'
p86
aS'0000782842'
p87
aS'0000791963'
p88
aS'0000878520'
p89
aS'0000886982'
p90
aS'0000920424'
p91
aS'0001015780'
p92
aS'0001052100'
p93
aS'0001056943'
p94
aS'0001060349'
p95
aS'0001060749'
p96
aS'0001084580'
p97
asI100
(lp98
S'0000003545'
p99
aS'0000018169'
p100
aS'0000096869'
p101
aS'0000101063'
p102
asI1382
(lp103
S'0000351231'
p104
aS'0000907649'
p105
asI4210
(lp106
S'0000844059'
p107
asI4213
(lp108
S'0000023675'
p109
aS'0000039273'
p110
aS'0000061004'
p111
aS'0000716006'
p112
aS'0000719271'
p113
aS'0000728535'
p114
aS'0000793074'
p115
aS'0000798287'
p116
aS'0000799167'
p117
aS'0000799233'
p118
aS'0000809246'
p119
aS'0000853816'
p120
aS'0000878927'
p121
aS'0000883945'
p122
aS'0000894405'
p123
aS'0000912728'
p124
aS'0000922863'
p125
aS'0000928658'
p126
aS'0000929452'
p127
asI1044
(lp128
S'0001011509'
p129
asI4220
(lp130
S'0001020569'
p131
asI6282
(lp132
S'0000020639'
p133
aS'0000038777'
p134
aS'0000083402'
p135
aS'0000350797'
p136
aS'0000717720'
p137
aS'0000754811'
p138
aS'0000825313'
p139
aS'0000934549'
p140
aS'0001004434'
p141
asI2200
(lp142
S'0000060977'
p143
aS'0000075439'
p144
aS'0000100726'
p145
aS'0000725813'
p146
aS'0000879911'
p147
asI2211
(lp148
S'0000025895'
p149
aS'0000723603'
p150
asI6311
(lp151
S'0000008177'
p152
aS'0000024090'
p153
aS'0000054473'
p154
aS'0000059558'
p155
aS'0000070684'
p156
aS'0000080124'
p157
aS'0000318673'
p158
aS'0000320335'
p159
aS'0000355429'
p160
aS'0000701869'
p161
aS'0000859139'
p162
aS'0000865058'
p163
aS'0001012771'
p164
aS'0001039828'
p165
aS'0001070940'
p166
asI2221
(lp167
S'0000355766'
p168
asI6321
(lp169
S'0000004977'
p170
aS'0000005513'
p171
aS'0000315293'
p172
aS'0000701221'
p173
aS'0000898174'
p174
asI6324
(lp175
S'0000049071'
p176
aS'0000731766'
p177
aS'0001074771'
p178
asI6331
(lp179
S'0000005272'
p180
aS'0000011544'
p181
aS'0000020171'
p182
aS'0000020286'
p183
aS'0000021175'
p184
aS'0000060086'
p185
aS'0000064996'
p186
aS'0000080661'
p187
aS'0000084246'
p188
aS'0000086312'
p189
aS'0000096223'
p190
aS'0000100716'
p191
aS'0000101199'
p192
aS'0000225648'
p193
aS'0000230557'
p194
aS'0000356130'
p195
aS'0000793547'
p196
aS'0000800457'
p197
aS'0000830122'
p198
aS'0000831001'
p199
aS'0000850141'
p200
aS'0000860748'
p201
aS'0000874977'
p202
aS'0000888919'
p203
aS'0000896159'
p204
aS'0000899051'
p205
aS'0000913144'
p206
aS'0000922621'
p207
aS'0000944695'
p208
aS'0000947484'
p209
aS'0000949156'
p210
aS'0001042046'
p211
asI200
(lp212
S'0000016160'
p213
asI6351
(lp214
S'0000074260'
p215
aS'0000814585'
p216
aS'0000875159'
p217
aS'0000876437'
p218
aS'0000890926'
p219
aS'0000911631'
p220
asI3448
(lp221
S'0000883902'
p222
asI6361
(lp223
S'0000036047'
p224
aS'0000094344'
p225
aS'0000720858'
p226
aS'0000775368'
p227
asI2273
(lp228
S'0000029332'
p229
aS'0000715787'
p230
aS'0000851968'
p231
asI2300
(lp232
S'0000082166'
p233
aS'0000095574'
p234
aS'0000821002'
p235
aS'0000869487'
p236
aS'0001060822'
p237
asI6399
(lp238
S'0000916085'
p239
asI6411
(lp240
S'0000062709'
p241
aS'0000079282'
p242
aS'0000351017'
p243
aS'0000354190'
p244
aS'0000774517'
p245
aS'0000783603'
p246
aS'0000874766'
p247
aS'0000874866'
p248
asI2320
(lp249
S'0000075288'
p250
aS'0000078239'
p251
aS'0000103379'
p252
aS'0000723254'
p253
aS'0000805305'
p254
aS'0000900349'
p255
aS'0001037038'
p256
asI2330
(lp257
S'0000074818'
p258
aS'0000844161'
p259
aS'0000874016'
p260
asI2340
(lp261
S'0000093631'
p262
aS'0000801351'
p263
aS'0000912463'
p264
asI4400
(lp265
S'0000003453'
p266
aS'0000056047'
p267
aS'0000098222'
p268
aS'0000796764'
p269
aS'0000815097'
p270
aS'0000921549'
p271
asI4412
(lp272
S'0000075208'
p273
aS'0000278041'
p274
aS'0000859598'
p275
asI2390
(lp276
S'0000844143'
p277
asI2400
(lp278
S'0000052827'
p279
aS'0000106535'
p280
aS'0000849706'
p281
asI6500
(lp282
S'0000316206'
p283
aS'0000833795'
p284
aS'0000948727'
p285
aS'0001025378'
p286
aS'0001037540'
p287
aS'0001045609'
p288
aS'0001053532'
p289
asI6512
(lp290
S'0000003499'
p291
aS'0000038067'
p292
aS'0000054187'
p293
aS'0000729237'
p294
aS'0000813762'
p295
aS'0001013794'
p296
aS'0001040971'
p297
aS'0001042776'
p298
aS'0001067419'
p299
asI6513
(lp300
S'0000716634'
p301
aS'0000746514'
p302
asI2421
(lp303
S'0000060519'
p304
aS'0000912767'
p305
aS'0001022469'
p306
asI6519
(lp307
S'0000086264'
p308
asI2430
(lp309
S'0000794619'
p310
asI6531
(lp311
S'0001037976'
p312
aS'0001085770'
p313
asI6532
(lp314
S'0000097517'
p315
asI2451
(lp316
S'0000072205'
p317
aS'0000090896'
p318
asI6552
(lp319
S'0000027984'
p320
aS'0000039677'
p321
aS'0000778946'
p322
aS'0000885508'
p323
aS'0001024126'
p324
asI4512
(lp325
S'0000027904'
p326
aS'0000092380'
p327
aS'0000100517'
p328
aS'0000701345'
p329
aS'0000766421'
p330
aS'0000793733'
p331
aS'0000914397'
p332
asI4513
(lp333
S'0000353184'
p334
aS'0001048911'
p335
asI4522
(lp336
S'0000073887'
p337
aS'0000350403'
p338
aS'0000816159'
p339
asI2510
(lp340
S'0000037472'
p341
aS'0000050957'
p342
aS'0000057131'
p343
aS'0000058492'
p344
aS'0000748015'
p345
aS'0000827187'
p346
aS'0000854087'
p347
aS'0000884130'
p348
aS'0001077688'
p349
asI2511
(lp350
S'0000010329'
p351
aS'0000797465'
p352
aS'0000896156'
p353
asI2520
(lp354
S'0000055772'
p355
aS'0000066382'
p356
asI2522
(lp357
S'0000048287'
p358
aS'0001050825'
p359
asI2531
(lp360
S'0000053669'
p361
aS'0000751365'
p362
aS'0000842162'
p363
aS'0000861361'
p364
asI4581
(lp365
S'0000701650'
p366
asI8700
(lp367
S'0000030419'
p368
aS'0000355627'
p369
aS'0000723531'
p370
aS'0001007330'
p371
aS'0001023313'
p372
aS'0001059556'
p373
asI4610
(lp374
S'0000805022'
p375
aS'0000880285'
p376
aS'0000888228'
p377
aS'0001070423'
p378
asI8711
(lp379
S'0000022252'
p380
aS'0000031791'
p381
aS'0000102379'
p382
aS'0000102752'
p383
aS'0000803647'
p384
aS'0000809933'
p385
aS'0000831641'
p386
asI8731
(lp387
S'0000034956'
p388
aS'0000096793'
p389
aS'0000317340'
p390
aS'0000793524'
p391
aS'0000799729'
p392
aS'0000816284'
p393
aS'0000831547'
p394
aS'0000879169'
p395
aS'0000880807'
p396
aS'0000885551'
p397
aS'0000895665'
p398
aS'0000899923'
p399
aS'0000911148'
p400
aS'0000911326'
p401
aS'0000913077'
p402
aS'0001002388'
p403
aS'0001023131'
p404
asI2590
(lp405
S'0000047518'
p406
aS'0001011570'
p407
asI8741
(lp408
S'0000009263'
p409
aS'0000749251'
p410
aS'0000878556'
p411
aS'0000948072'
p412
aS'0001019737'
p413
aS'0001052045'
p414
asI8742
(lp415
S'0000851520'
p416
aS'0000887936'
p417
aS'0001013706'
p418
aS'0001032220'
p419
aS'0001053706'
p420
aS'0001057379'
p421
aS'0001066104'
p422
asI8744
(lp423
S'0000923796'
p424
asI2611
(lp425
S'0000899597'
p426
asI2621
(lp427
S'0000012978'
p428
aS'0000041719'
p429
aS'0000051434'
p430
aS'0000055785'
p431
aS'0000075659'
p432
aS'0000079716'
p433
aS'0000105076'
p434
aS'0001000623'
p435
asI3851
(lp436
S'0000711404'
p437
aS'0000718937'
p438
aS'0001036292'
p439
asI2631
(lp440
S'0000091767'
p441
aS'0000745308'
p442
aS'0000886239'
p443
asI7948
(lp444
S'0000020212'
p445
aS'0000051548'
p446
aS'0000356213'
p447
aS'0000921738'
p448
aS'0000934648'
p449
asI2650
(lp450
S'0000008063'
p451
aS'0000043920'
p452
aS'0000075677'
p453
aS'0000230498'
p454
asI4700
(lp455
S'0000040211'
p456
aS'0000946842'
p457
asI2670
(lp458
S'0000008818'
p459
aS'0000011199'
p460
aS'0000069680'
p461
aS'0000895329'
p462
aS'0000920321'
p463
asI6770
(lp464
S'0000320017'
p465
aS'0000839441'
p466
aS'0000842694'
p467
aS'0001011835'
p468
aS'0001029730'
p469
aS'0001034592'
p470
aS'0001056288'
p471
aS'0001058438'
p472
aS'0001071993'
p473
aS'0001077771'
p474
aS'0001091491'
p475
aS'0001091883'
p476
asI4731
(lp477
S'0000746515'
p478
aS'0000865941'
p479
aS'0000940942'
p480
aS'0001043277'
p481
aS'0001091735'
p482
asI6792
(lp483
S'0000062362'
p484
aS'0000072633'
p485
aS'0000097148'
p486
aS'0000276077'
p487
aS'0000313364'
p488
aS'0000319654'
p489
aS'0000319655'
p490
aS'0000710752'
p491
aS'0000881787'
p492
aS'0000895474'
p493
asI6794
(lp494
S'0000003570'
p495
aS'0000049754'
p496
aS'0000066496'
p497
aS'0000916529'
p498
aS'0001016470'
p499
asI6795
(lp500
S'0000043410'
p501
aS'0000065172'
p502
aS'0000277058'
p503
asI6798
(lp504
S'0000014846'
p505
aS'0000025232'
p506
aS'0000034903'
p507
aS'0000036840'
p508
aS'0000037008'
p509
aS'0000049600'
p510
aS'0000067625'
p511
aS'0000074208'
p512
aS'0000077281'
p513
aS'0000082473'
p514
aS'0000104894'
p515
aS'0000712770'
p516
aS'0000726728'
p517
aS'0000733590'
p518
aS'0000751364'
p519
aS'0000752642'
p520
aS'0000761648'
p521
aS'0000765880'
p522
aS'0000766701'
p523
aS'0000766704'
p524
aS'0000783280'
p525
aS'0000790816'
p526
aS'0000798783'
p527
aS'0000803649'
p528
aS'0000826675'
p529
aS'0000828916'
p530
aS'0000833079'
p531
aS'0000842183'
p532
aS'0000849213'
p533
aS'0000860546'
p534
aS'0000866368'
p535
aS'0000877860'
p536
aS'0000879101'
p537
aS'0000887905'
p538
aS'0000888491'
p539
aS'0000890319'
p540
aS'0000894315'
p541
aS'0000895417'
p542
aS'0000895648'
p543
aS'0000899629'
p544
aS'0000899689'
p545
aS'0000899715'
p546
aS'0000899749'
p547
aS'0000903127'
p548
aS'0000906107'
p549
aS'0000906345'
p550
aS'0000907254'
p551
aS'0000908311'
p552
aS'0000909111'
p553
aS'0000910108'
p554
aS'0000910606'
p555
aS'0000910612'
p556
aS'0000911635'
p557
aS'0000912242'
p558
aS'0000912593'
p559
aS'0000912595'
p560
aS'0000912898'
p561
aS'0000915912'
p562
aS'0000917251'
p563
aS'0000920522'
p564
aS'0000921082'
p565
aS'0000921112'
p566
aS'0000921825'
p567
aS'0000922864'
p568
aS'0000923118'
p569
aS'0000923284'
p570
aS'0000923603'
p571
aS'0000924901'
p572
aS'0000929545'
p573
aS'0000930236'
p574
aS'0000944314'
p575
aS'0000945394'
p576
aS'0000949961'
p577
aS'0001000298'
p578
aS'0001011109'
p579
aS'0001025996'
p580
aS'0001029800'
p581
aS'0001035443'
p582
aS'0001038222'
p583
aS'0001042810'
p584
aS'0001045450'
p585
aS'0001047884'
p586
aS'0001055160'
p587
aS'0001063761'
p588
aS'0001070985'
p589
aS'0001075415'
p590
aS'0001095651'
p591
asI6799
(lp592
S'0000731859'
p593
aS'0000759718'
p594
aS'0000831378'
p595
aS'0001017907'
p596
asI2711
(lp597
S'0000039899'
p598
aS'0000058361'
p599
aS'0000071691'
p600
aS'0000104889'
p601
aS'0000216539'
p602
aS'0000356080'
p603
aS'0000783412'
p604
aS'0000832428'
p605
aS'0001056087'
p606
asI2721
(lp607
S'0000065011'
p608
aS'0001091801'
p609
asI2731
(lp610
S'0000064040'
p611
aS'0000866729'
p612
asI2732
(lp613
S'0000025212'
p614
asI2741
(lp615
S'0000045919'
p616
asI700
(lp617
S'0000727273'
p618
aS'0000817366'
p619
asI2750
(lp620
S'0000019149'
p621
aS'0000029669'
p622
aS'0000055362'
p623
aS'0000819220'
p624
aS'0000921500'
p625
asI2761
(lp626
S'0000033002'
p627
aS'0000093456'
p628
asI4812
(lp629
S'0000821130'
p630
aS'0000842915'
p631
aS'0000852766'
p632
aS'0000904255'
p633
aS'0001006269'
p634
aS'0001037016'
p635
aS'0001096788'
p636
asI4813
(lp637
S'0000018926'
p638
aS'0000065873'
p639
aS'0000071557'
p640
aS'0000101830'
p641
aS'0000104777'
p642
aS'0000354963'
p643
aS'0000716133'
p644
aS'0000732712'
p645
aS'0000732717'
p646
aS'0000766561'
p647
aS'0000808461'
p648
aS'0000879585'
p649
aS'0000943117'
p650
aS'0001006837'
p651
aS'0001014052'
p652
aS'0001043533'
p653
aS'0001051512'
p654
aS'0001057758'
p655
aS'0001062613'
p656
aS'0001065049'
p657
aS'0001089511'
p658
asI2771
(lp659
S'0000005133'
p660
aS'0000020629'
p661
asI4822
(lp662
S'0001084048'
p663
aS'0001094816'
p664
asI2780
(lp665
S'0000027996'
p666
aS'0000886206'
p667
asI4832
(lp668
S'0000783005'
p669
aS'0000886136'
p670
aS'0000908937'
p671
aS'0000927720'
p672
aS'0001041657'
p673
aS'0001050606'
p674
aS'0001058623'
p675
aS'0001067837'
p676
asI4833
(lp677
S'0000043196'
p678
aS'0000748592'
p679
aS'0000891103'
p680
aS'0000912752'
p681
aS'0000925645'
p682
asI2790
(lp683
S'0000719164'
p684
asI4841
(lp685
S'0000813828'
p686
aS'0000911002'
p687
aS'0001001082'
p688
aS'0001030058'
p689
aS'0001053112'
p690
aS'0001088825'
p691
aS'0001091667'
p692
asI2800
(lp693
S'0000009326'
p694
aS'0000029915'
p695
aS'0000037785'
p696
aS'0000074303'
p697
aS'0001043382'
p698
aS'0001045309'
p699
aS'0001054905'
p700
asI2810
(lp701
S'0000002969'
p702
aS'0000060714'
p703
aS'0000072162'
p704
aS'0000350832'
p705
aS'0000783209'
p706
aS'0000805264'
p707
aS'0000812701'
p708
aS'0000844965'
p709
aS'0000884905'
p710
aS'0000891014'
p711
aS'0000899723'
p712
aS'0000909992'
p713
asI2820
(lp714
S'0000030554'
p715
asI2821
(lp716
S'0000084748'
p717
aS'0000087565'
p718
aS'0000818033'
p719
aS'0000915389'
p720
aS'0000915913'
p721
aS'0001005286'
p722
asI2833
(lp723
S'0000352747'
p724
aS'0000722104'
p725
aS'0000768408'
p726
aS'0000896264'
p727
aS'0001050007'
p728
aS'0001056358'
p729
aS'0001065087'
p730
asI2834
(lp731
S'0000001800'
p732
aS'0000003116'
p733
aS'0000005187'
p734
aS'0000014272'
p735
aS'0000038074'
p736
aS'0000059478'
p737
aS'0000069499'
p738
aS'0000078003'
p739
aS'0000109657'
p740
aS'0000200406'
p741
aS'0000275053'
p742
aS'0000310158'
p743
aS'0000318306'
p744
aS'0000733337'
p745
aS'0000768710'
p746
aS'0000786947'
p747
aS'0000787253'
p748
aS'0000795551'
p749
aS'0000802724'
p750
aS'0000805326'
p751
aS'0000820096'
p752
aS'0000821995'
p753
aS'0000835887'
p754
aS'0000850693'
p755
aS'0000855654'
p756
aS'0000858803'
p757
aS'0000859368'
p758
aS'0000872589'
p759
aS'0000874015'
p760
aS'0000874663'
p761
aS'0000875320'
p762
aS'0000878088'
p763
aS'0000879993'
p764
aS'0000880771'
p765
aS'0000881464'
p766
aS'0000884629'
p767
aS'0000886163'
p768
aS'0000886744'
p769
aS'0000887359'
p770
aS'0000891288'
p771
aS'0000891293'
p772
aS'0000894158'
p773
aS'0000899866'
p774
aS'0000906709'
p775
aS'0000912183'
p776
aS'0000919722'
p777
aS'0000922814'
p778
aS'0000929547'
p779
aS'0000944809'
p780
aS'0000946840'
p781
aS'0000949699'
p782
aS'0001009356'
p783
aS'0001019695'
p784
aS'0001048477'
p785
aS'0001059784'
p786
aS'0001070698'
p787
aS'0001082554'
p788
asI2835
(lp789
S'0000353569'
p790
aS'0000704562'
p791
aS'0000711377'
p792
aS'0000722830'
p793
aS'0000739944'
p794
aS'0000744218'
p795
aS'0000792977'
p796
aS'0000793725'
p797
aS'0000794172'
p798
aS'0000810509'
p799
aS'0000811641'
p800
aS'0000830656'
p801
aS'0000874716'
p802
aS'0000881890'
p803
aS'0000901219'
p804
aS'0000907654'
p805
aS'0000949858'
p806
aS'0001038277'
p807
asI2836
(lp808
S'0000072444'
p809
aS'0000318154'
p810
aS'0000352998'
p811
aS'0000725363'
p812
aS'0000727510'
p813
aS'0000730272'
p814
aS'0000789944'
p815
aS'0000799698'
p816
aS'0000819050'
p817
aS'0000842023'
p818
aS'0000861838'
p819
aS'0000875045'
p820
aS'0000876343'
p821
aS'0000880643'
p822
aS'0000882095'
p823
aS'0000882104'
p824
aS'0000882796'
p825
aS'0000883975'
p826
aS'0000884731'
p827
aS'0000890465'
p828
aS'0000897075'
p829
aS'0000898437'
p830
aS'0000908259'
p831
aS'0000910267'
p832
aS'0000914475'
p833
aS'0000917520'
p834
aS'0001000694'
p835
aS'0001012140'
p836
aS'0001020214'
p837
aS'0001038133'
p838
aS'0001073431'
p839
asI2840
(lp840
S'0000031462'
p841
aS'0000080424'
p842
aS'0000094049'
p843
aS'0000313927'
p844
asI2842
(lp845
S'0000021076'
p846
aS'0000350737'
p847
asI2844
(lp848
S'0000008868'
p849
aS'0000021665'
p850
aS'0000088000'
p851
aS'0000095052'
p852
aS'0000721447'
p853
aS'0000822663'
p854
aS'0000887921'
p855
aS'0001001250'
p856
asI800
(lp857
S'0000784011'
p858
asI4899
(lp859
S'0000826326'
p860
aS'0000880804'
p861
aS'0001040570'
p862
aS'0001051470'
p863
aS'0001053507'
p864
aS'0001077634'
p865
asI2860
(lp866
S'0000051253'
p867
aS'0000820081'
p868
aS'0000912365'
p869
aS'0001091862'
p870
asI4911
(lp871
S'0000004904'
p872
aS'0000018808'
p873
aS'0000031978'
p874
aS'0000032689'
p875
aS'0000065984'
p876
aS'0000072741'
p877
aS'0000092122'
p878
aS'0000103682'
p879
aS'0000350563'
p880
aS'0000354707'
p881
aS'0000715957'
p882
aS'0000753308'
p883
aS'0000764622'
p884
aS'0000784977'
p885
aS'0000827052'
p886
aS'0000922224'
p887
aS'0000923680'
p888
aS'0000936340'
p889
aS'0000941138'
p890
aS'0001013871'
p891
aS'0001021635'
p892
aS'0001031296'
p893
aS'0001057877'
p894
aS'0001089819'
p895
asI2870
(lp896
S'0000005981'
p897
aS'0000825542'
p898
aS'0000879575'
p899
asI4922
(lp900
S'0000107263'
p901
aS'0000909281'
p902
aS'0001066107'
p903
aS'0001075607'
p904
asI4923
(lp905
S'0000007332'
p906
aS'0000019745'
p907
aS'0000033213'
p908
aS'0000092416'
p909
aS'0000277375'
p910
aS'0000701288'
p911
aS'0000751652'
p912
aS'0001039684'
p913
aS'0001069533'
p914
asI4924
(lp915
S'0000043350'
p916
aS'0000070145'
p917
aS'0000073020'
p918
aS'0000078460'
p919
aS'0000091928'
p920
aS'0000277595'
p921
aS'0000356309'
p922
aS'0000731802'
p923
aS'0001004155'
p924
asI4931
(lp925
S'0000020520'
p926
aS'0000054507'
p927
aS'0000066756'
p928
aS'0000072903'
p929
aS'0000073088'
p930
aS'0000104918'
p931
aS'0000352541'
p932
aS'0000741508'
p933
aS'0000754737'
p934
aS'0000755001'
p935
aS'0000783325'
p936
aS'0000788784'
p937
aS'0000811156'
p938
aS'0000916863'
p939
aS'0001002910'
p940
aS'0001004980'
p941
aS'0001047862'
p942
aS'0001061393'
p943
asI4932
(lp944
S'0000067716'
p945
aS'0000884614'
p946
aS'0001032208'
p947
asI2890
(lp948
S'0000016040'
p949
aS'0000105132'
p950
aS'0000911649'
p951
aS'0000912513'
p952
aS'0001090061'
p953
asI2891
(lp954
S'0000039368'
p955
asI4941
(lp956
S'0000066004'
p957
aS'0000078128'
p958
aS'0000108985'
p959
aS'0000276209'
p960
aS'0000766829'
p961
aS'0000863110'
p962
aS'0001035201'
p963
aS'0001056903'
p964
asI4953
(lp965
S'0000071829'
p966
aS'0000350698'
p967
aS'0000742126'
p968
aS'0000823768'
p969
aS'0000911177'
p970
aS'0001057058'
p971
aS'0001060391'
p972
aS'0001061069'
p973
asI4955
(lp974
S'0000103096'
p975
aS'0000799235'
p976
aS'0000822818'
p977
aS'0000858748'
p978
aS'0000861878'
p979
aS'0000891532'
p980
asI2911
(lp981
S'0000004447'
p982
aS'0000007039'
p983
aS'0000034088'
p984
aS'0000048039'
p985
aS'0000050104'
p986
aS'0000093410'
p987
aS'0000095304'
p988
aS'0000101778'
p989
aS'0000717423'
p990
aS'0000850033'
p991
aS'0001035002'
p992
asI7011
(lp993
S'0000062234'
p994
aS'0001046311'
p995
aS'0001048286'
p996
aS'0001052595'
p997
aS'0001063344'
p998
aS'0001070750'
p999
asI4991
(lp1000
S'0000874761'
p1001
asI900
(lp1002
S'0001053650'
p1003
asI5000
(lp1004
S'0000277135'
p1005
asI5013
(lp1006
S'0000040987'
p1007
aS'0000728303'
p1008
aS'0000874238'
p1009
asI5031
(lp1010
S'0000025445'
p1011
aS'0000076605'
p1012
asI2990
(lp1013
S'0000081362'
p1014
asI5040
(lp1015
S'0000847541'
p1016
aS'0000875355'
p1017
asI5045
(lp1018
S'0000086115'
p1019
aS'0000099313'
p1020
aS'0000790703'
p1021
aS'0000800286'
p1022
aS'0000826253'
p1023
aS'0000850483'
p1024
aS'0000897893'
p1025
aS'0000918965'
p1026
aS'0000945983'
p1027
aS'0001018003'
p1028
aS'0001044167'
p1029
asI5047
(lp1030
S'0000019446'
p1031
aS'0000075252'
p1032
aS'0000891024'
p1033
aS'0000920527'
p1034
asI5050
(lp1035
S'0000839470'
p1036
asI5051
(lp1037
S'0000018172'
p1038
aS'0000022444'
p1039
aS'0000352825'
p1040
aS'0000861884'
p1041
aS'0000917470'
p1042
asI3011
(lp1043
S'0000024491'
p1044
aS'0000042582'
p1045
asI5063
(lp1046
S'0000052795'
p1047
aS'0000929008'
p1048
asI5065
(lp1049
S'0000007536'
p1050
aS'0000008858'
p1051
aS'0000078749'
p1052
aS'0000102109'
p1053
aS'0000355948'
p1054
aS'0000746210'
p1055
aS'0000758743'
p1056
aS'0000807707'
p1057
aS'0000918946'
p1058
aS'0000927355'
p1059
aS'0000942126'
p1060
asI3021
(lp1061
S'0000320187'
p1062
aS'0000910521'
p1063
aS'0000919443'
p1064
asI5070
(lp1065
S'0000105016'
p1066
asI5072
(lp1067
S'0001017815'
p1068
asI5080
(lp1069
S'0000054381'
p1070
aS'0000109563'
p1071
aS'0000703604'
p1072
asI5082
(lp1073
S'0000859792'
p1074
asI5084
(lp1075
S'0001003078'
p1076
aS'0001020710'
p1077
aS'0001021860'
p1078
asI5090
(lp1079
S'0000795665'
p1080
aS'0000862861'
p1081
aS'0000912603'
p1082
aS'0000945841'
p1083
asI1531
(lp1084
S'0000006207'
p1085
aS'0000023795'
p1086
aS'0000085974'
p1087
aS'0000357294'
p1088
aS'0000773141'
p1089
aS'0000794170'
p1090
aS'0000795266'
p1091
aS'0000799292'
p1092
aS'0000822416'
p1093
aS'0000878560'
p1094
aS'0000882184'
p1095
aS'0000906163'
p1096
aS'0000915840'
p1097
asI1000
(lp1098
S'0000059860'
p1099
aS'0000101594'
p1100
aS'0000764065'
p1101
aS'0000831259'
p1102
aS'0000843296'
p1103
aS'0000851726'
p1104
aS'0001001838'
p1105
asI5099
(lp1106
S'0000911650'
p1107
asI3060
(lp1108
S'0000105770'
p1109
aS'0000790051'
p1110
asI5110
(lp1111
S'0000355999'
p1112
aS'0001055454'
p1113
asI5122
(lp1114
S'0000721371'
p1115
aS'0000927653'
p1116
aS'0000946644'
p1117
aS'0001021561'
p1118
asI3080
(lp1119
S'0000077597'
p1120
asI3081
(lp1121
S'0000785787'
p1122
aS'0000813619'
p1123
aS'0000850429'
p1124
aS'0001012100'
p1125
asI5130
(lp1126
S'0001050797'
p1127
aS'0001065837'
p1128
asI3086
(lp1129
S'0000914156'
p1130
asI1040
(lp1131
S'0000085535'
p1132
aS'0000109757'
p1133
aS'0000215466'
p1134
aS'0000739460'
p1135
aS'0000783324'
p1136
aS'0000903571'
p1137
asI3089
(lp1138
S'0000007431'
p1139
aS'0000069488'
p1140
aS'0000896622'
p1141
aS'0000932699'
p1142
aS'0001008654'
p1143
aS'0001026655'
p1144
aS'0001069878'
p1145
asI5140
(lp1146
S'0000069671'
p1147
aS'0000095521'
p1148
aS'0000096021'
p1149
aS'0000354567'
p1150
aS'0000718332'
p1151
aS'0001022368'
p1152
asI5141
(lp1153
S'0000015847'
p1154
aS'0000877422'
p1155
aS'0000928465'
p1156
aS'0001020859'
p1157
asI3100
(lp1158
S'0000090721'
p1159
aS'0000909724'
p1160
asI5150
(lp1161
S'0000102037'
p1162
aS'0000821026'
p1163
aS'0000939930'
p1164
asI7200
(lp1165
S'0000012659'
p1166
aS'0000039648'
p1167
aS'0000089089'
p1168
aS'0000716643'
p1169
aS'0000717954'
p1170
aS'0000723612'
p1171
aS'0000749254'
p1172
aS'0000878522'
p1173
aS'0000914142'
p1174
aS'0000941604'
p1175
aS'0001014041'
p1176
aS'0001016281'
p1177
aS'0001018946'
p1178
aS'0001038280'
p1179
aS'0001066605'
p1180
asI5160
(lp1181
S'0000002034'
p1182
aS'0000019584'
p1183
aS'0000046250'
p1184
aS'0000090185'
p1185
aS'0000804212'
p1186
aS'0000949428'
p1187
asI5171
(lp1188
S'0001022321'
p1189
aS'0001052752'
p1190
asI5172
(lp1191
S'0000002178'
p1192
aS'0000789460'
p1193
aS'0001024452'
p1194
asI5180
(lp1195
S'0001046880'
p1196
asI1090
(lp1197
S'0000066600'
p1198
aS'0000931948'
p1199
asI3140
(lp1200
S'0000014707'
p1201
aS'0000106532'
p1202
aS'0000110471'
p1203
aS'0000749872'
p1204
aS'0000857737'
p1205
aS'0000862480'
p1206
aS'0000895456'
p1207
aS'0000913241'
p1208
aS'0000921691'
p1209
asI5190
(lp1210
S'0000031667'
p1211
aS'0000793628'
p1212
aS'0000830052'
p1213
aS'0000887733'
p1214
asI5200
(lp1215
S'0000815556'
p1216
aS'0000916365'
p1217
aS'0001037390'
p1218
asI5211
(lp1219
S'0000060667'
p1220
aS'0000354950'
p1221
aS'0000885307'
p1222
asI5990
(lp1223
S'0000863157'
p1224
aS'0000932628'
p1225
aS'0001002590'
p1226
aS'0001012569'
p1227
aS'0001017712'
p1228
aS'0001084869'
p1229
asI5311
(lp1230
S'0000006885'
p1231
aS'0000028917'
p1232
aS'0000063416'
p1233
aS'0000794367'
p1234
aS'0000812900'
p1235
aS'0000878079'
p1236
aS'0000885639'
p1237
asI7310
(lp1238
S'0000883293'
p1239
aS'0001078099'
p1240
aS'0001083243'
p1241
asI7311
(lp1242
S'0000029989'
p1243
aS'0000051644'
p1244
aS'0000934448'
p1245
aS'0001020416'
p1246
aS'0001090425'
p1247
asI3220
(lp1248
S'0000024741'
p1249
aS'0000902274'
p1250
asI3221
(lp1251
S'0000812074'
p1252
aS'0000814453'
p1253
asI7320
(lp1254
S'0000033185'
p1255
asI7331
(lp1256
S'0000797564'
p1257
aS'0000914712'
p1258
asI3241
(lp1259
S'0000918646'
p1260
asI7340
(lp1261
S'0000084839'
p1262
aS'0000731012'
p1263
aS'0000771497'
p1264
asI3613
(lp1265
S'0000080420'
p1266
aS'0000277928'
p1267
aS'0000889331'
p1268
asI8734
(lp1269
S'0000070487'
p1270
aS'0000110536'
p1271
aS'0000732026'
p1272
aS'0000825410'
p1273
aS'0001026650'
p1274
asI3260
(lp1275
S'0000814676'
p1276
asI7359
(lp1277
S'0000032166'
p1278
aS'0000072170'
p1279
aS'0000706688'
p1280
aS'0000752714'
p1281
aS'0000926423'
p1282
aS'0000933036'
p1283
aS'0001018164'
p1284
aS'0001067701'
p1285
asI7361
(lp1286
S'0000040570'
p1287
aS'0000056679'
p1288
asI7363
(lp1289
S'0000018396'
p1290
aS'0000055135'
p1291
aS'0000315213'
p1292
aS'0000700841'
p1293
aS'0000768899'
p1294
aS'0000785557'
p1295
aS'0000871763'
p1296
aS'0000890564'
p1297
aS'0000902791'
p1298
aS'0000930420'
p1299
aS'0001000753'
p1300
aS'0001017968'
p1301
asI1220
(lp1302
S'0000078890'
p1303
aS'0000106455'
p1304
aS'0001003344'
p1305
aS'0001070412'
p1306
asI1221
(lp1307
S'0001037676'
p1308
aS'0001064728'
p1309
aS'0001086600'
p1310
asI3270
(lp1311
S'0000067517'
p1312
aS'0000757011'
p1313
asI3272
(lp1314
S'0000945634'
p1315
aS'0001073429'
p1316
asI7370
(lp1317
S'0000879796'
p1318
aS'0001007456'
p1319
aS'0001013237'
p1320
aS'0001057083'
p1321
aS'0001087423'
p1322
asI7371
(lp1323
S'0000006292'
p1324
aS'0000023111'
p1325
aS'0000098338'
p1326
aS'0000913659'
p1327
aS'0000918581'
p1328
aS'0000929940'
p1329
aS'0000945384'
p1330
aS'0001002225'
p1331
aS'0001006892'
p1332
aS'0001014473'
p1333
aS'0001024732'
p1334
aS'0001029299'
p1335
aS'0001040426'
p1336
aS'0001046327'
p1337
aS'0001052054'
p1338
aS'0001058290'
p1339
aS'0001077913'
p1340
asI7372
(lp1341
S'0000031347'
p1342
aS'0000356028'
p1343
aS'0000712515'
p1344
aS'0000713425'
p1345
aS'0000718877'
p1346
aS'0000737300'
p1347
aS'0000769397'
p1348
aS'0000786620'
p1349
aS'0000789019'
p1350
aS'0000792130'
p1351
aS'0000796343'
p1352
aS'0000813672'
p1353
aS'0000835729'
p1354
aS'0000849399'
p1355
aS'0000857005'
p1356
aS'0000859014'
p1357
aS'0000865570'
p1358
aS'0000876167'
p1359
aS'0000877890'
p1360
aS'0000880562'
p1361
aS'0000883241'
p1362
aS'0000894237'
p1363
aS'0000896878'
p1364
aS'0000910638'
p1365
aS'0000913277'
p1366
aS'0000920448'
p1367
aS'0000935036'
p1368
aS'0000944480'
p1369
aS'0000945989'
p1370
aS'0000946581'
p1371
aS'0000948708'
p1372
aS'0001011661'
p1373
aS'0001013462'
p1374
aS'0001013687'
p1375
aS'0001016125'
p1376
aS'0001021435'
p1377
aS'0001025148'
p1378
aS'0001029744'
p1379
aS'0001031107'
p1380
aS'0001036188'
p1381
aS'0001042821'
p1382
aS'0001043186'
p1383
aS'0001050446'
p1384
aS'0001053148'
p1385
aS'0001056696'
p1386
aS'0001062478'
p1387
aS'0001066026'
p1388
aS'0001066194'
p1389
aS'0001072978'
p1390
aS'0001073349'
p1391
aS'0001080099'
p1392
aS'0001082506'
p1393
aS'0001084408'
p1394
aS'0001084755'
p1395
aS'0001088033'
p1396
asI7373
(lp1397
S'0000016058'
p1398
aS'0000023082'
p1399
aS'0000030822'
p1400
aS'0000354260'
p1401
aS'0000701811'
p1402
aS'0000708818'
p1403
aS'0000779152'
p1404
aS'0000804753'
p1405
aS'0000814549'
p1406
aS'0000873044'
p1407
aS'0000874733'
p1408
aS'0000876378'
p1409
aS'0000879703'
p1410
aS'0001002047'
p1411
aS'0001005731'
p1412
aS'0001008586'
p1413
aS'0001008817'
p1414
aS'0001010612'
p1415
aS'0001011006'
p1416
aS'0001015739'
p1417
aS'0001023734'
p1418
aS'0001034760'
p1419
aS'0001044777'
p1420
aS'0001045035'
p1421
aS'0001045150'
p1422
aS'0001048695'
p1423
aS'0001056923'
p1424
aS'0001062047'
p1425
aS'0001062530'
p1426
aS'0001075531'
p1427
aS'0001078075'
p1428
aS'0001084332'
p1429
aS'0001085280'
p1430
asI7374
(lp1431
S'0000008670'
p1432
aS'0000070866'
p1433
aS'0000721683'
p1434
aS'0000733269'
p1435
aS'0000798354'
p1436
aS'0000903651'
p1437
aS'0001005757'
p1438
aS'0001013857'
p1439
aS'0001014111'
p1440
aS'0001046057'
p1441
aS'0001057352'
p1442
aS'0001068875'
p1443
aS'0001079996'
p1444
aS'0001080056'
p1445
asI7377
(lp1446
S'0000803016'
p1447
asI5331
(lp1448
S'0000027419'
p1449
aS'0000029534'
p1450
aS'0000030302'
p1451
aS'0000034408'
p1452
aS'0000104169'
p1453
aS'0000724571'
p1454
aS'0000768835'
p1455
aS'0000798955'
p1456
aS'0000850209'
p1457
aS'0000878726'
p1458
aS'0000909832'
p1459
aS'0000935703'
p1460
aS'0001051771'
p1461
asI7380
(lp1462
S'0001069258'
p1463
asI7381
(lp1464
S'0000864509'
p1465
aS'0000913353'
p1466
asI7385
(lp1467
S'0000097196'
p1468
asI3290
(lp1469
S'0000018937'
p1470
aS'0000049930'
p1471
aS'0000066740'
p1472
aS'0001009672'
p1473
asI7389
(lp1474
S'0000014280'
p1475
aS'0000753048'
p1476
aS'0000814547'
p1477
aS'0000823094'
p1478
aS'0000868267'
p1479
aS'0000888953'
p1480
aS'0000896429'
p1481
aS'0000944148'
p1482
aS'0001004989'
p1483
aS'0001013880'
p1484
aS'0001031029'
p1485
aS'0001032761'
p1486
aS'0001051114'
p1487
aS'0001054102'
p1488
aS'0001054721'
p1489
aS'0001056386'
p1490
aS'0001058299'
p1491
aS'0001065088'
p1492
aS'0001065332'
p1493
aS'0001077370'
p1494
aS'0001080224'
p1495
aS'0001080398'
p1496
aS'0001083712'
p1497
aS'0001085621'
p1498
aS'0001089143'
p1499
aS'0001089872'
p1500
aS'0001089907'
p1501
asI3310
(lp1502
S'0000039092'
p1503
aS'0000108516'
p1504
aS'0000764401'
p1505
aS'0000858655'
p1506
aS'0000860731'
p1507
aS'0000912562'
p1508
asI3312
(lp1509
S'0000017843'
p1510
aS'0000055604'
p1511
aS'0000073309'
p1512
aS'0000097472'
p1513
aS'0000106618'
p1514
aS'0000899751'
p1515
aS'0000918160'
p1516
aS'0000931584'
p1517
aS'0001022671'
p1518
asI3317
(lp1519
S'0000095953'
p1520
aS'0001001385'
p1521
asI3320
(lp1522
S'0000079958'
p1523
asI3330
(lp1524
S'0000352947'
p1525
asI3334
(lp1526
S'0000004281'
p1527
aS'0000004285'
p1528
aS'0000063814'
p1529
aS'0000811596'
p1530
asI3341
(lp1531
S'0001011657'
p1532
asI3350
(lp1533
S'0000089439'
p1534
aS'0000850460'
p1535
aS'0000949157'
p1536
aS'0001068717'
p1537
asI3357
(lp1538
S'0000886035'
p1539
aS'0000913142'
p1540
asI1311
(lp1541
S'0000006769'
p1542
aS'0000023194'
p1543
aS'0000025743'
p1544
aS'0000038079'
p1545
aS'0000041023'
p1546
aS'0000061398'
p1547
aS'0000064279'
p1548
aS'0000066418'
p1549
aS'0000072207'
p1550
aS'0000077159'
p1551
aS'0000230463'
p1552
aS'0000311471'
p1553
aS'0000313478'
p1554
aS'0000315261'
p1555
aS'0000315852'
p1556
aS'0000316300'
p1557
aS'0000351817'
p1558
aS'0000352955'
p1559
aS'0000719209'
p1560
aS'0000726293'
p1561
aS'0000732834'
p1562
aS'0000773326'
p1563
aS'0000773910'
p1564
aS'0000778438'
p1565
aS'0000797468'
p1566
aS'0000798949'
p1567
aS'0000813779'
p1568
aS'0000821189'
p1569
aS'0000833320'
p1570
aS'0000843212'
p1571
aS'0000845289'
p1572
aS'0000858470'
p1573
aS'0000862022'
p1574
aS'0000867038'
p1575
aS'0000867665'
p1576
aS'0000872248'
p1577
aS'0000874499'
p1578
aS'0000880115'
p1579
aS'0000893538'
p1580
aS'0000894627'
p1581
aS'0000895126'
p1582
aS'0000904080'
p1583
aS'0000912030'
p1584
aS'0000912750'
p1585
aS'0000928022'
p1586
aS'0000943861'
p1587
aS'0000945764'
p1588
aS'0001009922'
p1589
aS'0001029023'
p1590
aS'0001038357'
p1591
aS'0001040593'
p1592
aS'0001059324'
p1593
aS'0001060990'
p1594
aS'0001061219'
p1595
aS'0001090012'
p1596
asI3360
(lp1597
S'0000063296'
p1598
asI5411
(lp1599
S'0000037914'
p1600
aS'0000050493'
p1601
aS'0000056873'
p1602
aS'0000085704'
p1603
aS'0000086144'
p1604
aS'0000103595'
p1605
aS'0000105418'
p1606
aS'0000225051'
p1607
aS'0000865436'
p1608
asI5412
(lp1609
S'0000726958'
p1610
aS'0000915862'
p1611
asI3390
(lp1612
S'0000034067'
p1613
asI7500
(lp1614
S'0000876427'
p1615
asI3411
(lp1616
S'0000009389'
p1617
asI7510
(lp1618
S'0000004457'
p1619
aS'0000077776'
p1620
aS'0000085961'
p1621
aS'0001049108'
p1622
aS'0001059262'
p1623
asI3420
(lp1624
S'0000002098'
p1625
aS'0000031107'
p1626
aS'0000093556'
p1627
aS'0000093676'
p1628
aS'0000099359'
p1629
aS'0000313616'
p1630
aS'0000874396'
p1631
aS'0000920371'
p1632
asI1381
(lp1633
S'0000008411'
p1634
aS'0000046765'
p1635
aS'0000076321'
p1636
aS'0000077877'
p1637
aS'0000085408'
p1638
aS'0000314808'
p1639
aS'0000318996'
p1640
aS'0000320575'
p1641
aS'0000355356'
p1642
aS'0000889900'
p1643
aS'0000949039'
p1644
aS'0001083269'
p1645
asI3430
(lp1646
S'0000062996'
p1647
aS'0000789073'
p1648
asI1389
(lp1649
S'0000073756'
p1650
aS'0000087347'
p1651
aS'0000866829'
p1652
aS'0000886835'
p1653
aS'0001000229'
p1654
asI3440
(lp1655
S'0000045876'
p1656
aS'0000102729'
p1657
aS'0000849869'
p1658
aS'0001031623'
p1659
asI3442
(lp1660
S'0000050725'
p1661
aS'0000763744'
p1662
asI3443
(lp1663
S'0000892553'
p1664
aS'0000911109'
p1665
asI1400
(lp1666
S'0000072316'
p1667
aS'0000082020'
p1668
aS'0000719413'
p1669
aS'0000813621'
p1670
aS'0000847917'
p1671
aS'0000855931'
p1672
aS'0000916076'
p1673
aS'0001065059'
p1674
asI5500
(lp1675
S'0000900075'
p1676
aS'0000912833'
p1677
aS'0001012019'
p1678
aS'0001019849'
p1679
aS'0001023128'
p1680
aS'0001031203'
p1681
aS'0001043509'
p1682
asI3460
(lp1683
S'0000076282'
p1684
aS'0000717605'
p1685
aS'0000904979'
p1686
asI3470
(lp1687
S'0000755003'
p1688
aS'0000895655'
p1689
asI3480
(lp1690
S'0000028561'
p1691
aS'0000095029'
p1692
aS'0000866121'
p1693
asI5531
(lp1694
S'0000077449'
p1695
aS'0000866787'
p1696
aS'0000898173'
p1697
aS'0001057060'
p1698
asI3490
(lp1699
S'0000009984'
p1700
aS'0000076334'
p1701
aS'0000087799'
p1702
aS'0000795403'
p1703
aS'0000914024'
p1704
aS'0001024795'
p1705
aS'0001049606'
p1706
asI7600
(lp1707
S'0000318833'
p1708
asI3510
(lp1709
S'0000014195'
p1710
aS'0000014930'
p1711
aS'0000026172'
p1712
asI3523
(lp1713
S'0000007623'
p1714
aS'0000315189'
p1715
aS'0000836157'
p1716
aS'0000880266'
p1717
aS'0000897077'
p1718
aS'0001024725'
p1719
asI3524
(lp1720
S'0000737758'
p1721
asI3530
(lp1722
S'0000029905'
p1723
asI3531
(lp1724
S'0000018230'
p1725
aS'0000061986'
p1726
aS'0000792987'
p1727
aS'0001005229'
p1728
asI3532
(lp1729
S'0000801898'
p1730
asI3533
(lp1731
S'0000354655'
p1732
aS'0000808362'
p1733
aS'0000941548'
p1734
aS'0001030749'
p1735
aS'0001042893'
p1736
asI3537
(lp1737
S'0000018061'
p1738
aS'0000097216'
p1739
aS'0000789933'
p1740
asI3540
(lp1741
S'0000019871'
p1742
aS'0000059527'
p1743
aS'0000075340'
p1744
aS'0000088205'
p1745
asI3541
(lp1746
S'0000055242'
p1747
aS'0000313716'
p1748
asI3550
(lp1749
S'0000077360'
p1750
aS'0000886346'
p1751
aS'0000906193'
p1752
aS'0001044590'
p1753
asI5600
(lp1754
S'0000874841'
p1755
aS'0000884217'
p1756
aS'0000920033'
p1757
asI3555
(lp1758
S'0000846876'
p1759
asI3559
(lp1760
S'0000006951'
p1761
aS'0000033619'
p1762
aS'0000054681'
p1763
aS'0000056978'
p1764
aS'0000203527'
p1765
aS'0000707549'
p1766
aS'0000720500'
p1767
aS'0000806172'
p1768
aS'0000810136'
p1769
aS'0000836106'
p1770
aS'0000840883'
p1771
aS'0000841692'
p1772
aS'0000865415'
p1773
aS'0000909791'
p1774
aS'0000914329'
p1775
aS'0000928421'
p1776
aS'0000931059'
p1777
aS'0000933974'
p1778
aS'0001001902'
p1779
aS'0001076930'
p1780
aS'0001088413'
p1781
asI3560
(lp1782
S'0000049826'
p1783
aS'0000060849'
p1784
aS'0000082811'
p1785
aS'0000100378'
p1786
aS'0000716314'
p1787
aS'0000877212'
p1788
aS'0000916459'
p1789
asI3561
(lp1790
S'0000006176'
p1791
aS'0000030625'
p1792
aS'0000042682'
p1793
aS'0000042888'
p1794
aS'0000084290'
p1795
aS'0000832101'
p1796
aS'0000882835'
p1797
asI3562
(lp1798
S'0000098362'
p1799
aS'0000740694'
p1800
aS'0000918541'
p1801
asI3564
(lp1802
S'0000029644'
p1803
aS'0000065201'
p1804
aS'0000098618'
p1805
aS'0000914122'
p1806
asI3567
(lp1807
S'0000088790'
p1808
asI1520
(lp1809
S'0000837173'
p1810
aS'0000920760'
p1811
asI3569
(lp1812
S'0000072331'
p1813
aS'0000075829'
p1814
aS'0000713002'
p1815
aS'0000833444'
p1816
aS'0001041577'
p1817
asI3570
(lp1818
S'0000047217'
p1819
aS'0000051143'
p1820
aS'0000746838'
p1821
aS'0000832489'
p1822
aS'0001001288'
p1823
asI3571
(lp1824
S'0000109758'
p1825
aS'0000319815'
p1826
aS'0000320193'
p1827
aS'0000749038'
p1828
aS'0000826083'
p1829
aS'0000885074'
p1830
aS'0000949158'
p1831
asI3572
(lp1832
S'0000027093'
p1833
aS'0000106040'
p1834
aS'0000709283'
p1835
aS'0000790070'
p1836
aS'0000889930'
p1837
aS'0001000180'
p1838
aS'0001042783'
p1839
asI5621
(lp1840
S'0000018255'
p1841
aS'0000019353'
p1842
aS'0000350199'
p1843
aS'0000701985'
p1844
aS'0000863456'
p1845
aS'0000874214'
p1846
aS'0000883943'
p1847
aS'0000896985'
p1848
aS'0000897429'
p1849
aS'0000912263'
p1850
aS'0001059272'
p1851
asI3575
(lp1852
S'0000105608'
p1853
asI3576
(lp1854
S'0000093384'
p1855
aS'0000225628'
p1856
aS'0000350917'
p1857
aS'0000722572'
p1858
aS'0000728249'
p1859
aS'0000736012'
p1860
aS'0000752431'
p1861
aS'0000849547'
p1862
aS'0000854775'
p1863
aS'0000858877'
p1864
aS'0000867374'
p1865
aS'0000879136'
p1866
aS'0000912844'
p1867
aS'0000922521'
p1868
aS'0001043604'
p1869
aS'0001078271'
p1870
asI3577
(lp1871
S'0000008146'
p1872
aS'0000108772'
p1873
aS'0000356037'
p1874
aS'0000715446'
p1875
aS'0000719733'
p1876
aS'0000727634'
p1877
aS'0000749660'
p1878
aS'0000790715'
p1879
aS'0000807863'
p1880
aS'0000815910'
p1881
aS'0000818470'
p1882
aS'0000892482'
p1883
aS'0000915735'
p1884
aS'0000919013'
p1885
aS'0000935494'
p1886
aS'0001017303'
p1887
aS'0001036044'
p1888
asI3578
(lp1889
S'0000028823'
p1890
aS'0000320345'
p1891
aS'0000354813'
p1892
aS'0000750004'
p1893
asI3579
(lp1894
S'0000078814'
p1895
asI3580
(lp1896
S'0000097134'
p1897
aS'0000310354'
p1898
aS'0000769520'
p1899
aS'0000914271'
p1900
asI3585
(lp1901
S'0000024104'
p1902
aS'0000096831'
p1903
aS'0000824142'
p1904
aS'0001069202'
p1905
asI1540
(lp1906
S'0000077543'
p1907
asI3590
(lp1908
S'0000003982'
p1909
aS'0000006955'
p1910
aS'0000026324'
p1911
aS'0000067887'
p1912
aS'0000216228'
p1913
aS'0000865754'
p1914
aS'0000875762'
p1915
aS'0001037646'
p1916
asI3600
(lp1917
S'0000002186'
p1918
aS'0000031277'
p1919
aS'0000040545'
p1920
asI5651
(lp1921
S'0000039911'
p1922
aS'0000072333'
p1923
aS'0000109198'
p1924
aS'0000745732'
p1925
aS'0000813298'
p1926
aS'0000884940'
p1927
aS'0000885245'
p1928
aS'0000912615'
p1929
aS'0000919012'
p1930
aS'0001018840'
p1931
aS'0001041859'
p1932
asI3612
(lp1933
S'0000751085'
p1934
asI5661
(lp1935
S'0000018498'
p1936
aS'0000895447'
p1937
aS'0001011308'
p1938
aS'0001060232'
p1939
asI3620
(lp1940
S'0000108312'
p1941
aS'0000825411'
p1942
aS'0000890923'
p1943
aS'0000931148'
p1944
aS'0001093691'
p1945
asI3621
(lp1946
S'0000038725'
p1947
aS'0000091142'
p1948
aS'0000315449'
p1949
asI3630
(lp1950
S'0000106640'
p1951
asI3634
(lp1952
S'0000080172'
p1953
asI3640
(lp1954
S'0000008947'
p1955
aS'0000048898'
p1956
aS'0000089270'
p1957
aS'0000096763'
p1958
aS'0000097854'
p1959
aS'0000763532'
p1960
aS'0000830524'
p1961
asI1600
(lp1962
S'0000045012'
p1963
aS'0000052988'
p1964
aS'0000861459'
p1965
asI3651
(lp1966
S'0000032621'
p1967
aS'0000056701'
p1968
aS'0000101984'
p1969
aS'0000800459'
p1970
aS'0000914139'
p1971
asI5700
(lp1972
S'0000278130'
p1973
aS'0000719955'
p1974
aS'0000886158'
p1975
asI3661
(lp1976
S'0000022701'
p1977
aS'0000065312'
p1978
aS'0000082628'
p1979
aS'0000097052'
p1980
aS'0000317771'
p1981
aS'0000352435'
p1982
aS'0000747605'
p1983
aS'0000794323'
p1984
aS'0000803014'
p1985
aS'0000822708'
p1986
aS'0000839443'
p1987
aS'0000914025'
p1988
aS'0000915324'
p1989
aS'0000926282'
p1990
aS'0000936395'
p1991
aS'0001002135'
p1992
aS'0001010552'
p1993
aS'0001080667'
p1994
aS'0001092367'
p1995
asI3663
(lp1996
S'0000006494'
p1997
aS'0000023197'
p1998
aS'0000030828'
p1999
aS'0000068505'
p2000
aS'0000096699'
p2001
aS'0000202058'
p2002
aS'0000350868'
p2003
aS'0000730255'
p2004
aS'0000780571'
p2005
aS'0000797721'
p2006
aS'0000804328'
p2007
aS'0000808918'
p2008
aS'0000851310'
p2009
aS'0000884144'
p2010
aS'0000922204'
p2011
aS'0001000683'
p2012
aS'0001019671'
p2013
aS'0001023362'
p2014
aS'0001031028'
p2015
aS'0001056239'
p2016
asI5712
(lp2017
S'0000216085'
p2018
asI3669
(lp2019
S'0000069633'
p2020
aS'0000215419'
p2021
aS'0000310056'
p2022
aS'0000355777'
p2023
aS'0000855612'
p2024
aS'0000870753'
p2025
aS'0001030708'
p2026
asI3670
(lp2027
S'0000004187'
p2028
aS'0000026058'
p2029
aS'0000096885'
p2030
aS'0000103730'
p2031
aS'0000808326'
p2032
aS'0000859163'
p2033
aS'0000887730'
p2034
aS'0001003214'
p2035
aS'0001024478'
p2036
aS'0001049521'
p2037
asI1623
(lp2038
S'0000015615'
p2039
aS'0000042316'
p2040
aS'0000067215'
p2041
aS'0000353020'
p2042
aS'0000700923'
p2043
asI3672
(lp2044
S'0000049728'
p2045
aS'0000076267'
p2046
aS'0000773657'
p2047
aS'0000785786'
p2048
aS'0000863436'
p2049
aS'0000864240'
p2050
aS'0000866374'
p2051
aS'0000881695'
p2052
aS'0000897723'
p2053
aS'0000898293'
p2054
aS'0000915358'
p2055
aS'0001003950'
p2056
asI3674
(lp2057
S'0000002488'
p2058
aS'0000004127'
p2059
aS'0000006281'
p2060
aS'0000029002'
p2061
aS'0000050863'
p2062
aS'0000070530'
p2063
aS'0000088941'
p2064
aS'0000097476'
p2065
aS'0000310568'
p2066
aS'0000316793'
p2067
aS'0000703360'
p2068
aS'0000703361'
p2069
aS'0000711065'
p2070
aS'0000723125'
p2071
aS'0000730000'
p2072
aS'0000743316'
p2073
aS'0000743988'
p2074
aS'0000753568'
p2075
aS'0000767920'
p2076
aS'0000768251'
p2077
aS'0000771266'
p2078
aS'0000772406'
p2079
aS'0000791907'
p2080
aS'0000791915'
p2081
aS'0000802851'
p2082
aS'0000827054'
p2083
aS'0000833640'
p2084
aS'0000849502'
p2085
aS'0000850579'
p2086
aS'0000854701'
p2087
aS'0000855658'
p2088
aS'0000869986'
p2089
aS'0000872448'
p2090
aS'0000880446'
p2091
aS'0000880984'
p2092
aS'0000882508'
p2093
aS'0000889423'
p2094
aS'0000895419'
p2095
aS'0000899297'
p2096
aS'0000911160'
p2097
aS'0000912093'
p2098
aS'0000913885'
p2099
aS'0000915778'
p2100
aS'0000917273'
p2101
aS'0000918386'
p2102
aS'0000932111'
p2103
aS'0000940332'
p2104
aS'0000944739'
p2105
aS'0000945436'
p2106
aS'0000945699'
p2107
aS'0001001426'
p2108
aS'0001018963'
p2109
aS'0001023731'
p2110
aS'0001036960'
p2111
aS'0001039065'
p2112
aS'0001045810'
p2113
aS'0001047127'
p2114
aS'0001051627'
p2115
aS'0001054374'
p2116
aS'0001059786'
p2117
aS'0001094739'
p2118
asI3677
(lp2119
S'0000729580'
p2120
asI3678
(lp2121
S'0000065270'
p2122
aS'0000067472'
p2123
aS'0000820313'
p2124
asI3679
(lp2125
S'0000023503'
p2126
aS'0000027748'
p2127
aS'0000033533'
p2128
aS'0000065770'
p2129
aS'0000104897'
p2130
aS'0000722313'
p2131
aS'0000722392'
p2132
aS'0000751978'
p2133
aS'0000772897'
p2134
aS'0000820097'
p2135
aS'0000927003'
p2136
aS'0001042825'
p2137
asI5731
(lp2138
S'0000096289'
p2139
aS'0000744187'
p2140
aS'0000764478'
p2141
asI5735
(lp2142
S'0000795212'
p2143
asI3690
(lp2144
S'0000093389'
p2145
aS'0000711665'
p2146
aS'0000719494'
p2147
aS'0000726514'
p2148
aS'0000813781'
p2149
aS'0000873603'
p2150
aS'0000875657'
p2151
aS'0000886128'
p2152
aS'0000918251'
p2153
aS'0001019361'
p2154
asI2851
(lp2155
S'0000035214'
p2156
aS'0000079879'
p2157
aS'0000089800'
p2158
aS'0000102741'
p2159
aS'0000110621'
p2160
asI3711
(lp2161
S'0000037996'
p2162
aS'0000075362'
p2163
aS'0000277509'
p2164
aS'0000743238'
p2165
aS'0000775158'
p2166
aS'0000808450'
p2167
aS'0000903129'
p2168
aS'0000922237'
p2169
asI3713
(lp2170
S'0000350846'
p2171
aS'0000924822'
p2172
asI3714
(lp2173
S'0000020740'
p2174
aS'0000026780'
p2175
aS'0000040888'
p2176
aS'0000067347'
p2177
aS'0000092679'
p2178
aS'0000095552'
p2179
aS'0000355811'
p2180
aS'0000773840'
p2181
aS'0000817979'
p2182
aS'0000854860'
p2183
aS'0000868780'
p2184
aS'0000908255'
p2185
aS'0000933034'
p2186
aS'0001022097'
p2187
aS'0001034670'
p2188
aS'0001043337'
p2189
aS'0001062231'
p2190
asI3715
(lp2191
S'0000879526'
p2192
aS'0000887637'
p2193
asI7812
(lp2194
S'0000771999'
p2195
aS'0001014733'
p2196
aS'0001015577'
p2197
asI3720
(lp2198
S'0000001750'
p2199
aS'0000217346'
p2200
aS'0001021162'
p2201
asI3721
(lp2202
S'0000012927'
p2203
asI3724
(lp2204
S'0000046619'
p2205
aS'0000090168'
p2206
aS'0000101829'
p2207
aS'0000772572'
p2208
asI7822
(lp2209
S'0000800458'
p2210
asI3728
(lp2211
S'0000030305'
p2212
aS'0001059562'
p2213
asI3730
(lp2214
S'0000040533'
p2215
aS'0000708819'
p2216
aS'0000742278'
p2217
asI7830
(lp2218
S'0000799088'
p2219
asI3743
(lp2220
S'0000099780'
p2221
aS'0000923120'
p2222
aS'0000943452'
p2223
asI1700
(lp2224
S'0000006845'
p2225
aS'0000054441'
p2226
aS'0000866273'
p2227
aS'0000888504'
p2228
aS'0001001606'
p2229
aS'0001004125'
p2230
aS'0001027884'
p2231
aS'0001034054'
p2232
asI3751
(lp2233
S'0000028367'
p2234
aS'0000793952'
p2235
asI3760
(lp2236
S'0000042542'
p2237
aS'0000936468'
p2238
aS'0001001907'
p2239
asI5810
(lp2240
S'0000829224'
p2241
asI5812
(lp2242
S'0000012040'
p2243
aS'0000016099'
p2244
aS'0000033769'
p2245
aS'0000039047'
p2246
aS'0000063908'
p2247
aS'0000068270'
p2248
aS'0000069733'
p2249
aS'0000093859'
p2250
aS'0000103884'
p2251
aS'0000703351'
p2252
aS'0000724606'
p2253
aS'0000728387'
p2254
aS'0000779544'
p2255
aS'0000784539'
p2256
aS'0000807882'
p2257
aS'0000813920'
p2258
aS'0000852772'
p2259
aS'0000868611'
p2260
aS'0000887596'
p2261
aS'0000901491'
p2262
aS'0000914537'
p2263
aS'0000935226'
p2264
aS'0000940944'
p2265
aS'0001013488'
p2266
aS'0001039889'
p2267
aS'0001041061'
p2268
aS'0001041379'
p2269
aS'0001067294'
p2270
asI1731
(lp2271
S'0000105634'
p2272
aS'0001035983'
p2273
aS'0001050915'
p2274
asI3790
(lp2275
S'0000719866'
p2276
aS'0000931015'
p2277
asI7900
(lp2278
S'0000013573'
p2279
aS'0000771950'
p2280
aS'0000896400'
p2281
aS'0001017673'
p2282
aS'0001091907'
p2283
asI3812
(lp2284
S'0000006314'
p2285
aS'0000109471'
p2286
aS'0000354908'
p2287
aS'0000820736'
p2288
aS'0000866706'
p2289
aS'0001007587'
p2290
aS'0001047122'
p2291
asI3821
(lp2292
S'0000055529'
p2293
aS'0000225263'
p2294
aS'0000720154'
p2295
aS'0000811212'
p2296
aS'0000880432'
p2297
asI3823
(lp2298
S'0000032604'
p2299
aS'0000033113'
p2300
aS'0000047307'
p2301
aS'0000315374'
p2302
aS'0000719152'
p2303
aS'0000851205'
p2304
aS'0000922612'
p2305
aS'0001049502'
p2306
asI3824
(lp2307
S'0000009092'
p2308
asI3825
(lp2309
S'0000006284'
p2310
aS'0000021535'
p2311
aS'0000039020'
p2312
aS'0000046129'
p2313
aS'0000091440'
p2314
aS'0000097210'
p2315
aS'0000099302'
p2316
aS'0000351998'
p2317
aS'0000357020'
p2318
aS'0000719274'
p2319
aS'0000854852'
p2320
aS'0000878828'
p2321
aS'0000908598'
p2322
aS'0000943580'
p2323
aS'0001037115'
p2324
aS'0001040470'
p2325
asI3826
(lp2326
S'0000012208'
p2327
aS'0000021510'
p2328
aS'0000066479'
p2329
aS'0000319240'
p2330
aS'0001000697'
p2331
asI3827
(lp2332
S'0000319201'
p2333
aS'0000730716'
p2334
aS'0000768411'
p2335
aS'0000796505'
p2336
aS'0000820318'
p2337
aS'0000887226'
p2338
aS'0001032067'
p2339
asI3829
(lp2340
S'0000026076'
p2341
aS'0000067279'
p2342
aS'0000068709'
p2343
aS'0000097745'
p2344
aS'0000103145'
p2345
aS'0000704532'
p2346
aS'0000778734'
p2347
aS'0000864749'
p2348
aS'0000866609'
p2349
aS'0000917491'
p2350
aS'0001001115'
p2351
asI3841
(lp2352
S'0000009892'
p2353
aS'0000010456'
p2354
aS'0000010795'
p2355
aS'0000096943'
p2356
aS'0000310764'
p2357
aS'0000313143'
p2358
aS'0000350907'
p2359
aS'0000706698'
p2360
aS'0000815093'
p2361
aS'0000815094'
p2362
aS'0000856982'
p2363
aS'0000868368'
p2364
aS'0000881524'
p2365
aS'0000883984'
p2366
aS'0000885725'
p2367
aS'0000896778'
p2368
aS'0000919745'
p2369
aS'0000943819'
p2370
aS'0001002811'
p2371
aS'0001013606'
p2372
aS'0001016169'
p2373
aS'0001017259'
p2374
aS'0001055726'
p2375
asI3842
(lp2376
S'0000066570'
p2377
aS'0000718924'
p2378
aS'0000742112'
p2379
aS'0000748270'
p2380
aS'0000798081'
p2381
aS'0000815065'
p2382
aS'0000874710'
p2383
aS'0000884269'
p2384
aS'0000913165'
p2385
aS'0000949874'
p2386
asI3843
(lp2387
S'0000811240'
p2388
aS'0000818479'
p2389
asI3844
(lp2390
S'0000005768'
p2391
aS'0000859737'
p2392
aS'0001014507'
p2393
asI3845
(lp2394
S'0000064670'
p2395
aS'0000203077'
p2396
aS'0000355019'
p2397
aS'0000749647'
p2398
aS'0000789132'
p2399
aS'0000816956'
p2400
aS'0000819689'
p2401
aS'0000836429'
p2402
aS'0000839087'
p2403
aS'0000862668'
p2404
aS'0000864683'
p2405
aS'0000879682'
p2406
aS'0000882873'
p2407
aS'0000895650'
p2408
aS'0000913443'
p2409
aS'0000924515'
p2410
aS'0001005010'
p2411
aS'0001006045'
p2412
aS'0001013238'
p2413
asI9995
(lp2414
S'0000040528'
p2415
asI5900
(lp2416
S'0000807884'
p2417
aS'0000840489'
p2418
aS'0000876523'
p2419
aS'0000908315'
p2420
aS'0000922358'
p2421
aS'0001005210'
p2422
aS'0001023364'
p2423
aS'0001041803'
p2424
asI3861
(lp2425
S'0000020232'
p2426
aS'0000896841'
p2427
aS'0000897067'
p2428
aS'0000921582'
p2429
aS'0000946454'
p2430
asI5912
(lp2431
S'0000064803'
p2432
aS'0000084129'
p2433
aS'0000104207'
p2434
aS'0000353230'
p2435
aS'0000880460'
p2436
asI3716
(lp2437
S'0000107687'
p2438
aS'0000730263'
p2439
asI3873
(lp2440
S'0000072573'
p2441
aS'0000883569'
p2442
asI5940
(lp2443
S'0000034151'
p2444
aS'0000791519'
p2445
aS'0000800240'
p2446
aS'0000890491'
p2447
aS'0000891919'
p2448
aS'0000892907'
p2449
aS'0001017480'
p2450
aS'0001054579'
p2451
asI7990
(lp2452
S'0000002491'
p2453
aS'0000012779'
p2454
aS'0000351903'
p2455
aS'0000701374'
p2456
aS'0000789570'
p2457
aS'0000799850'
p2458
aS'0000811532'
p2459
aS'0000812011'
p2460
aS'0000834162'
p2461
aS'0000858339'
p2462
aS'0000863015'
p2463
aS'0000906553'
p2464
aS'0000906780'
p2465
aS'0000907242'
p2466
aS'0000912145'
p2467
aS'0001001039'
p2468
aS'0001071255'
p2469
asI5944
(lp2470
S'0000098246'
p2471
aS'0000109156'
p2472
asI6111
(lp2473
S'0000845877'
p2474
asI3910
(lp2475
S'0001015155'
p2476
asI5961
(lp2477
S'0000870826'
p2478
aS'0000932696'
p2479
aS'0000937941'
p2480
aS'0000945114'
p2481
aS'0001000228'
p2482
aS'0001018005'
p2483
aS'0001018724'
p2484
aS'0001050377'
p2485
aS'0001082923'
p2486
asI8011
(lp2487
S'0000885988'
p2488
aS'0001054833'
p2489
asI3931
(lp2490
S'0000911583'
p2491
asI3942
(lp2492
S'0000063276'
p2493
aS'0000739878'
p2494
asI3944
(lp2495
S'0000046080'
p2496
aS'0000918580'
p2497
aS'0001009829'
p2498
asI3949
(lp2499
S'0000033488'
p2500
aS'0000060876'
p2501
aS'0000788329'
p2502
aS'0000837465'
p2503
aS'0001059763'
p2504
aS'0001078207'
p2505
asI3950
(lp2506
S'0000025793'
p2507
asI8050
(lp2508
S'0000929994'
p2509
aS'0001001604'
p2510
aS'0001011064'
p2511
aS'0001043000'
p2512
aS'0001060009'
p2513
asI8051
(lp2514
S'0000105744'
p2515
aS'0000866970'
p2516
aS'0000904978'
p2517
aS'0000919956'
p2518
aS'0001047335'
p2519
asI3960
(lp2520
S'0001077866'
p2521
asI8060
(lp2522
S'0000019411'
p2523
aS'0000022872'
p2524
aS'0000320340'
p2525
aS'0000704415'
p2526
aS'0000740260'
p2527
aS'0000773136'
p2528
aS'0000893949'
p2529
aS'0000895930'
p2530
aS'0001079577'
p2531
asI8062
(lp2532
S'0000070318'
p2533
aS'0000352915'
p2534
aS'0000792985'
p2535
aS'0000860730'
p2536
asI6021
(lp2537
S'0000018349'
p2538
aS'0000019617'
p2539
aS'0000028412'
p2540
aS'0000036104'
p2541
aS'0000036146'
p2542
aS'0000036966'
p2543
aS'0000037808'
p2544
aS'0000039263'
p2545
aS'0000049196'
p2546
aS'0000070858'
p2547
aS'0000072971'
p2548
aS'0000090498'
p2549
aS'0000091576'
p2550
aS'0000092230'
p2551
aS'0000093451'
p2552
aS'0000101382'
p2553
aS'0000109380'
p2554
aS'0000201461'
p2555
aS'0000203596'
p2556
aS'0000311094'
p2557
aS'0000350852'
p2558
aS'0000351077'
p2559
aS'0000354869'
p2560
aS'0000700564'
p2561
aS'0000700733'
p2562
aS'0000700863'
p2563
aS'0000702325'
p2564
aS'0000707179'
p2565
aS'0000707605'
p2566
aS'0000707855'
p2567
aS'0000708955'
p2568
aS'0000712534'
p2569
aS'0000712537'
p2570
aS'0000713095'
p2571
aS'0000713676'
p2572
aS'0000714310'
p2573
aS'0000717538'
p2574
aS'0000723188'
p2575
aS'0000726294'
p2576
aS'0000726854'
p2577
aS'0000729986'
p2578
aS'0000740663'
p2579
aS'0000741516'
p2580
aS'0000750556'
p2581
aS'0000750558'
p2582
aS'0000750686'
p2583
aS'0000754673'
p2584
aS'0000759458'
p2585
aS'0000760498'
p2586
aS'0000763907'
p2587
aS'0000764811'
p2588
aS'0000765207'
p2589
aS'0000779125'
p2590
aS'0000783739'
p2591
aS'0000790359'
p2592
aS'0000796317'
p2593
aS'0000796534'
p2594
aS'0000805676'
p2595
aS'0000824410'
p2596
aS'0000828944'
p2597
aS'0000842518'
p2598
aS'0000846617'
p2599
aS'0000860519'
p2600
aS'0000862831'
p2601
aS'0000874495'
p2602
aS'0000875357'
p2603
aS'0000893847'
p2604
aS'0000943119'
p2605
aS'0001027258'
p2606
aS'0001035092'
p2607
aS'0001035976'
p2608
aS'0001038773'
p2609
aS'0001041753'
p2610
aS'0001074902'
p2611
asI6022
(lp2612
S'0000007789'
p2613
aS'0000019612'
p2614
aS'0000022356'
p2615
aS'0000034782'
p2616
aS'0000035527'
p2617
aS'0000036029'
p2618
aS'0000036270'
p2619
aS'0000036506'
p2620
aS'0000037049'
p2621
aS'0000039311'
p2622
aS'0000046195'
p2623
aS'0000073124'
p2624
aS'0000093751'
p2625
aS'0000102212'
p2626
aS'0000275119'
p2627
aS'0000314489'
p2628
aS'0000315709'
p2629
aS'0000315849'
p2630
aS'0000318300'
p2631
aS'0000320387'
p2632
aS'0000351569'
p2633
aS'0000353191'
p2634
aS'0000354647'
p2635
aS'0000356171'
p2636
aS'0000357173'
p2637
aS'0000357264'
p2638
aS'0000357301'
p2639
aS'0000700565'
p2640
aS'0000701347'
p2641
aS'0000701853'
p2642
aS'0000702513'
p2643
aS'0000703699'
p2644
aS'0000705432'
p2645
aS'0000706129'
p2646
aS'0000706863'
p2647
aS'0000706874'
p2648
aS'0000708781'
p2649
aS'0000708848'
p2650
aS'0000709337'
p2651
aS'0000711669'
p2652
aS'0000712771'
p2653
aS'0000713671'
p2654
aS'0000714395'
p2655
aS'0000714530'
p2656
aS'0000714562'
p2657
aS'0000714712'
p2658
aS'0000715072'
p2659
aS'0000715579'
p2660
aS'0000716605'
p2661
aS'0000717059'
p2662
aS'0000717806'
p2663
aS'0000718413'
p2664
aS'0000719220'
p2665
aS'0000719739'
p2666
aS'0000720002'
p2667
aS'0000721994'
p2668
aS'0000723594'
p2669
aS'0000726517'
p2670
aS'0000726601'
p2671
aS'0000730708'
p2672
aS'0000731122'
p2673
aS'0000731653'
p2674
aS'0000732417'
p2675
aS'0000736772'
p2676
aS'0000737210'
p2677
aS'0000737468'
p2678
aS'0000737875'
p2679
aS'0000739421'
p2680
aS'0000740155'
p2681
aS'0000740971'
p2682
aS'0000742070'
p2683
aS'0000743367'
p2684
aS'0000750574'
p2685
aS'0000750577'
p2686
aS'0000763563'
p2687
aS'0000763901'
p2688
aS'0000764038'
p2689
aS'0000764402'
p2690
aS'0000767405'
p2691
aS'0000769207'
p2692
aS'0000770460'
p2693
aS'0000771614'
p2694
aS'0000775345'
p2695
aS'0000775662'
p2696
aS'0000776901'
p2697
aS'0000778972'
p2698
aS'0000785024'
p2699
aS'0000798941'
p2700
aS'0000802681'
p2701
aS'0000810958'
p2702
aS'0000811589'
p2703
aS'0000811831'
p2704
aS'0000812348'
p2705
aS'0000821127'
p2706
aS'0000826154'
p2707
aS'0000828678'
p2708
aS'0000834285'
p2709
aS'0000835324'
p2710
aS'0000846901'
p2711
aS'0000855874'
p2712
aS'0000857855'
p2713
aS'0000859070'
p2714
aS'0000859222'
p2715
aS'0000860413'
p2716
aS'0000861842'
p2717
aS'0000865911'
p2718
aS'0000866054'
p2719
aS'0000879635'
p2720
aS'0000880417'
p2721
aS'0000880641'
p2722
aS'0000883948'
p2723
aS'0000887149'
p2724
aS'0000887919'
p2725
aS'0000889936'
p2726
aS'0000890066'
p2727
aS'0000894671'
p2728
aS'0000895541'
p2729
aS'0000906465'
p2730
aS'0000913341'
p2731
aS'0000919865'
p2732
aS'0000921557'
p2733
aS'0000922487'
p2734
aS'0000933141'
p2735
aS'0000944745'
p2736
aS'0000946090'
p2737
aS'0001005817'
p2738
aS'0001009976'
p2739
aS'0001013272'
p2740
aS'0001013796'
p2741
aS'0001015328'
p2742
aS'0001018399'
p2743
aS'0001025536'
p2744
aS'0001025835'
p2745
aS'0001025877'
p2746
aS'0001030469'
p2747
aS'0001036070'
p2748
aS'0001038205'
p2749
aS'0001047170'
p2750
aS'0001051343'
p2751
aS'0001053352'
p2752
aS'0001054508'
p2753
aS'0001058690'
p2754
aS'0001068300'
p2755
aS'0001068851'
p2756
aS'0001069157'
p2757
aS'0001071992'
p2758
aS'0001075706'
p2759
aS'0001076394'
p2760
aS'0001083643'
p2761
aS'0001085706'
p2762
aS'0001093672'
p2763
aS'0001093728'
p2764
asI8071
(lp2765
S'0000316253'
p2766
aS'0000744825'
p2767
aS'0000790526'
p2768
aS'0000792641'
p2769
aS'0000806517'
p2770
aS'0000817135'
p2771
aS'0000895051'
p2772
aS'0000920148'
p2773
aS'0001022079'
p2774
asI6029
(lp2775
S'0000908837'
p2776
aS'0001017793'
p2777
asI8082
(lp2778
S'0000741815'
p2779
aS'0000799231'
p2780
aS'0000882235'
p2781
aS'0000896262'
p2782
aS'0001007228'
p2783
asI6035
(lp2784
S'0000774569'
p2785
aS'0000787075'
p2786
aS'0000792966'
p2787
aS'0000801337'
p2788
aS'0000806279'
p2789
aS'0000814184'
p2790
aS'0000822662'
p2791
aS'0000854395'
p2792
aS'0000855574'
p2793
aS'0000857853'
p2794
aS'0000867493'
p2795
aS'0000868671'
p2796
aS'0000872835'
p2797
aS'0000873860'
p2798
aS'0000881790'
p2799
aS'0000887343'
p2800
aS'0000910322'
p2801
aS'0000914374'
p2802
aS'0000915393'
p2803
aS'0000919864'
p2804
aS'0000920112'
p2805
aS'0000921051'
p2806
aS'0000921183'
p2807
aS'0000921768'
p2808
aS'0000923139'
p2809
aS'0000928592'
p2810
aS'0000930203'
p2811
aS'0000933590'
p2812
aS'0000934538'
p2813
aS'0000936528'
p2814
aS'0000939928'
p2815
aS'0000946647'
p2816
aS'0001000232'
p2817
aS'0001004702'
p2818
aS'0001005188'
p2819
aS'0001005409'
p2820
aS'0001006424'
p2821
aS'0001010470'
p2822
aS'0001015593'
p2823
aS'0001016178'
p2824
aS'0001027183'
p2825
aS'0001028918'
p2826
aS'0001033012'
p2827
aS'0001041368'
p2828
aS'0001041550'
p2829
aS'0001046203'
p2830
aS'0001057706'
p2831
aS'0001059131'
p2832
aS'0001060219'
p2833
aS'0001062438'
p2834
aS'0001074433'
p2835
aS'0001074543'
p2836
asI6036
(lp2837
S'0000016614'
p2838
aS'0000707886'
p2839
aS'0000854560'
p2840
aS'0000891106'
p2841
aS'0000907471'
p2842
aS'0000910073'
p2843
aS'0000910679'
p2844
aS'0000912764'
p2845
aS'0000921847'
p2846
aS'0000933136'
p2847
aS'0000946673'
p2848
aS'0000948368'
p2849
aS'0001009242'
p2850
aS'0001042064'
p2851
aS'0001046025'
p2852
aS'0001046050'
p2853
aS'0001046188'
p2854
aS'0001047947'
p2855
aS'0001049782'
p2856
aS'0001051741'
p2857
aS'0001070154'
p2858
aS'0001070190'
p2859
aS'0001074078'
p2860
asI3990
(lp2861
S'0000074046'
p2862
aS'0000278165'
p2863
aS'0000350077'
p2864
aS'0000353944'
p2865
aS'0000718789'
p2866
aS'0000746598'
p2867
aS'0000915779'
p2868
aS'0000921503'
p2869
aS'0001036262'
p2870
asI8090
(lp2871
S'0000027367'
p2872
aS'0000784199'
p2873
aS'0000801748'
p2874
aS'0000927066'
p2875
aS'0001014739'
p2876
asI8093
(lp2877
S'0000722723'
p2878
aS'0000785161'
p2879
aS'0000885978'
p2880
aS'0001089815'
p2881
asI4011
(lp2882
S'0000054480'
p2883
aS'0000100885'
p2884
aS'0000277948'
p2885
aS'0000702165'
p2886
aS'0000831968'
p2887
aS'0001012620'
p2888
asI2000
(lp2889
S'0000016732'
p2890
aS'0000023666'
p2891
aS'0000764180'
p2892
aS'0000910406'
p2893
asI6099
(lp2894
S'0001029199'
p2895
aS'0001088034'
p2896
asI2011
(lp2897
S'0000023217'
p2898
aS'0000048465'
p2899
aS'0000091388'
p2900
asI2013
(lp2901
S'0000014177'
p2902
asI2015
(lp2903
S'0000088121'
p2904
aS'0000100493'
p2905
aS'0000802481'
p2906
aS'0000812128'
p2907
asI2024
(lp2908
S'0000931336'
p2909
asI2030
(lp2910
S'0000046640'
p2911
aS'0000057515'
p2912
aS'0001046257'
p2913
asI2033
(lp2914
S'0000063330'
p2915
aS'0000088948'
p2916
aS'0000091419'
p2917
asI2040
(lp2918
S'0000040704'
p2919
aS'0000055067'
p2920
aS'0000739608'
p2921
aS'0000835011'
p2922
aS'0001029506'
p2923
aS'0001034669'
p2924
asI6141
(lp2925
S'0000108385'
p2926
aS'0000885550'
p2927
aS'0000927628'
p2928
aS'0001021061'
p2929
as.